target datalayout = "e-m:e-p270:32:32-p271:32:32-p272:64:64-i64:64-i128:128-f80:128-n8:16:32:64-S128"
target triple = "x86_64-pc-linux-gnu"

%struct.strvec = type { ptr, i64, i64 }
%struct.string_list = type { ptr, i64, i64, i8, ptr }
%struct.string_list_item = type { ptr, ptr }
%struct.remote = type { %struct.hashmap_entry, ptr, i32, i32, ptr, %struct.strvec, %struct.strvec, %struct.refspec, %struct.refspec, i32, i32, i32, i32, i32, ptr, ptr, ptr, ptr, %struct.string_list, i32, ptr }
%struct.hashmap_entry = type { ptr, i32 }
%struct.refspec = type { ptr, i32, i32, i32 }
%struct.branch_info = type { ptr, %struct.string_list, i32, ptr }
%struct.ref_states = type { ptr, %struct.string_list, %struct.string_list, %struct.string_list, %struct.string_list, %struct.string_list, %struct.string_list, i32 }
%struct.show_info = type { %struct.string_list, %struct.ref_states, i32, i32, i32 }

; Function Attrs: nounwind uwtable
define internal i32 @add_local_to_show_info(ptr noundef %0, ptr noundef %1) #0 {
  %3 = alloca i32, align 4
  %4 = alloca ptr, align 8
  %5 = alloca ptr, align 8
  %6 = alloca ptr, align 8
  %7 = alloca ptr, align 8
  %8 = alloca ptr, align 8
  %9 = alloca ptr, align 8
  %10 = alloca i32, align 4
  %11 = alloca i32, align 4
  store ptr %0, ptr %4, align 8, !tbaa !62
  store ptr %1, ptr %5, align 8, !tbaa !15
  call void @llvm.lifetime.start.p0(i64 8, ptr %6) #11
  %12 = load ptr, ptr %5, align 8, !tbaa !15
  store ptr %12, ptr %6, align 8, !tbaa !203
  call void @llvm.lifetime.start.p0(i64 8, ptr %7) #11
  %13 = load ptr, ptr %6, align 8, !tbaa !203
  %14 = getelementptr inbounds nuw %struct.show_info, ptr %13, i32 0, i32 1
  store ptr %14, ptr %7, align 8, !tbaa !177
  call void @llvm.lifetime.start.p0(i64 8, ptr %8) #11
  %15 = load ptr, ptr %4, align 8, !tbaa !62
  %16 = getelementptr inbounds nuw %struct.string_list_item, ptr %15, i32 0, i32 1
  %17 = load ptr, ptr %16, align 8, !tbaa !63
  store ptr %17, ptr %8, align 8, !tbaa !64
  call void @llvm.lifetime.start.p0(i64 8, ptr %9) #11
  call void @llvm.lifetime.start.p0(i64 4, ptr %10) #11
  %18 = load ptr, ptr %8, align 8, !tbaa !64
  %19 = getelementptr inbounds nuw %struct.branch_info, ptr %18, i32 0, i32 1
  %20 = getelementptr inbounds nuw %struct.string_list, ptr %19, i32 0, i32 1
  %21 = load i64, ptr %20, align 8, !tbaa !205
  %22 = icmp ne i64 %21, 0
  br i1 %22, label %23, label %39

23:                                               ; preds = %2
  %24 = load ptr, ptr %8, align 8, !tbaa !64
  %25 = getelementptr inbounds nuw %struct.branch_info, ptr %24, i32 0, i32 0
  %26 = load ptr, ptr %25, align 8, !tbaa !66
  %27 = icmp ne ptr %26, null
  br i1 %27, label %28, label %39

28:                                               ; preds = %23
  %29 = load ptr, ptr %7, align 8, !tbaa !177
  %30 = getelementptr inbounds nuw %struct.ref_states, ptr %29, i32 0, i32 0
  %31 = load ptr, ptr %30, align 8, !tbaa !179
  %32 = getelementptr inbounds nuw %struct.remote, ptr %31, i32 0, i32 1
  %33 = load ptr, ptr %32, align 8, !tbaa !81
  %34 = load ptr, ptr %8, align 8, !tbaa !64
  %35 = getelementptr inbounds nuw %struct.branch_info, ptr %34, i32 0, i32 0
  %36 = load ptr, ptr %35, align 8, !tbaa !66
  %37 = call i32 @strcmp(ptr noundef %33, ptr noundef %36) #14
  %38 = icmp ne i32 %37, 0
  br i1 %38, label %39, label %40

39:                                               ; preds = %28, %23, %2
  store i32 0, ptr %3, align 4
  store i32 1, ptr %11, align 4
  br label %72

40:                                               ; preds = %28
  %41 = load ptr, ptr %4, align 8, !tbaa !62
  %42 = getelementptr inbounds nuw %struct.string_list_item, ptr %41, i32 0, i32 0
  %43 = load ptr, ptr %42, align 8, !tbaa !38
  %44 = call i64 @strlen(ptr noundef %43) #14
  %45 = trunc i64 %44 to i32
  store i32 %45, ptr %10, align 4, !tbaa !4
  %46 = load ptr, ptr %6, align 8, !tbaa !203
  %47 = getelementptr inbounds nuw %struct.show_info, ptr %46, i32 0, i32 2
  %48 = load i32, ptr %47, align 8, !tbaa !113
  %49 = icmp sgt i32 %45, %48
  br i1 %49, label %50, label %54

50:                                               ; preds = %40
  %51 = load i32, ptr %10, align 4, !tbaa !4
  %52 = load ptr, ptr %6, align 8, !tbaa !203
  %53 = getelementptr inbounds nuw %struct.show_info, ptr %52, i32 0, i32 2
  store i32 %51, ptr %53, align 8, !tbaa !113
  br label %54

54:                                               ; preds = %50, %40
  %55 = load ptr, ptr %8, align 8, !tbaa !64
  %56 = getelementptr inbounds nuw %struct.branch_info, ptr %55, i32 0, i32 2
  %57 = load i32, ptr %56, align 8, !tbaa !156
  %58 = icmp sge i32 %57, 1
  br i1 %58, label %59, label %62

59:                                               ; preds = %54
  %60 = load ptr, ptr %6, align 8, !tbaa !203
  %61 = getelementptr inbounds nuw %struct.show_info, ptr %60, i32 0, i32 4
  store i32 1, ptr %61, align 8, !tbaa !115
  br label %62

62:                                               ; preds = %59, %54
  %63 = load ptr, ptr %6, align 8, !tbaa !203
  %64 = getelementptr inbounds nuw %struct.show_info, ptr %63, i32 0, i32 0
  %65 = load ptr, ptr %4, align 8, !tbaa !62
  %66 = getelementptr inbounds nuw %struct.string_list_item, ptr %65, i32 0, i32 0
  %67 = load ptr, ptr %66, align 8, !tbaa !38
  %68 = call ptr @string_list_insert(ptr noundef %64, ptr noundef %67)
  store ptr %68, ptr %9, align 8, !tbaa !62
  %69 = load ptr, ptr %8, align 8, !tbaa !64
  %70 = load ptr, ptr %9, align 8, !tbaa !62
  %71 = getelementptr inbounds nuw %struct.string_list_item, ptr %70, i32 0, i32 1
  store ptr %69, ptr %71, align 8, !tbaa !63
  store i32 0, ptr %3, align 4
  store i32 1, ptr %11, align 4
  br label %72

72:                                               ; preds = %62, %39
  call void @llvm.lifetime.end.p0(i64 4, ptr %10) #11
  call void @llvm.lifetime.end.p0(i64 8, ptr %9) #11
  call void @llvm.lifetime.end.p0(i64 8, ptr %8) #11
  call void @llvm.lifetime.end.p0(i64 8, ptr %7) #11
  call void @llvm.lifetime.end.p0(i64 8, ptr %6) #11
  %73 = load i32, ptr %3, align 4
  ret i32 %73
}