; Function Attrs: nounwind uwtable
define internal noundef i32 @add_local_to_show_info(ptr noundef readonly captures(none) %0, ptr noundef %1) #0 {
  %3 = getelementptr inbounds nuw i8, ptr %1, i64 40
  %4 = getelementptr inbounds nuw i8, ptr %0, i64 8
  %5 = load ptr, ptr %4, align 8, !tbaa !67
  %6 = getelementptr inbounds nuw i8, ptr %5, i64 16
  %7 = load i64, ptr %6, align 8, !tbaa !164
  %.not = icmp eq i64 %7, 0
  br i1 %.not, label %32, label %8

8:                                                ; preds = %2
  %9 = load ptr, ptr %5, align 8, !tbaa !68
  %.not18 = icmp eq ptr %9, null
  br i1 %.not18, label %32, label %10

10:                                               ; preds = %8
  %11 = load ptr, ptr %3, align 8, !tbaa !119
  %12 = getelementptr inbounds nuw i8, ptr %11, i64 16
  %13 = load ptr, ptr %12, align 8, !tbaa !54
  %14 = tail call i32 @strcmp(ptr noundef nonnull dereferenceable(1) %13, ptr noundef nonnull dereferenceable(1) %9) #21
  %.not19 = icmp eq i32 %14, 0
  br i1 %.not19, label %15, label %32

15:                                               ; preds = %10
  %16 = load ptr, ptr %0, align 8, !tbaa !34
  %17 = tail call i64 @strlen(ptr noundef nonnull dereferenceable(1) %16) #21
  %18 = trunc i64 %17 to i32
  %19 = getelementptr inbounds nuw i8, ptr %1, i64 296
  %20 = load i32, ptr %19, align 8, !tbaa !112
  %21 = icmp slt i32 %20, %18
  br i1 %21, label %22, label %23

22:                                               ; preds = %15
  store i32 %18, ptr %19, align 8, !tbaa !112
  br label %23

23:                                               ; preds = %22, %15
  %24 = getelementptr inbounds nuw i8, ptr %5, i64 48
  %25 = load i32, ptr %24, align 8, !tbaa !134
  %26 = icmp sgt i32 %25, 0
  br i1 %26, label %27, label %29

27:                                               ; preds = %23
  %28 = getelementptr inbounds nuw i8, ptr %1, i64 304
  store i32 1, ptr %28, align 8, !tbaa !114
  br label %29

29:                                               ; preds = %27, %23
  %30 = tail call ptr @string_list_insert(ptr noundef nonnull %1, ptr noundef nonnull %16) #19
  %31 = getelementptr inbounds nuw i8, ptr %30, i64 8
  store ptr %5, ptr %31, align 8, !tbaa !67
  br label %32

32:                                               ; preds = %2, %8, %10, %29
  ret i32 0
}